#include <math.h>
#include <stdio.h>
#include <stdlib.h>
#include <string.h>

int main()
{
	int n,a[100],i,j,m,d,c[100];
	scanf("%d\n",&n);
	for(i=0;i<n;i++)
	{
		scanf("%d",&m);
		a[i]=m;
	}
	if(n/2==0)
		d=n/2;
	else 
		d=(n+1)/2;
		for(j=0;j<d;j++)
		{
			c[j]=a[n-1-j];
			printf("%d ",c[j]);
		}
			for(j=d;j<n;j++)
		{
			c[j]=a[n-1-j];
			if(j==(n-1))
					printf("%d",c[j]);
			else
	printf("%d ",c[j]);
		}
return 0;
}

