; ModuleID = '47/5914.c'
source_filename = "47/5914.c"
target datalayout = "e-m:e-p270:32:32-p271:32:32-p272:64:64-i64:64-f80:128-n8:16:32:64-S128"
target triple = "x86_64-pc-linux-gnu"

@.str = private unnamed_addr constant [4 x i8] c"%d\0A\00", align 1
@.str.1 = private unnamed_addr constant [3 x i8] c"%d\00", align 1
@.str.2 = private unnamed_addr constant [4 x i8] c"%d \00", align 1

; Function Attrs: noinline nounwind uwtable
define dso_local i32 @main() #0 {
  %1 = alloca i32, align 4
  %2 = alloca i32, align 4
  %3 = alloca [100 x i32], align 16
  %4 = alloca i32, align 4
  %5 = alloca i32, align 4
  %6 = alloca i32, align 4
  %7 = alloca i32, align 4
  %8 = alloca [100 x i32], align 16
  store i32 0, i32* %1, align 4
  %9 = call i32 (i8*, ...) @__isoc99_scanf(i8* getelementptr inbounds ([4 x i8], [4 x i8]* @.str, i64 0, i64 0), i32* %2)
  store i32 0, i32* %4, align 4
  br label %10

10:                                               ; preds = %20, %0
  %11 = load i32, i32* %4, align 4
  %12 = load i32, i32* %2, align 4
  %13 = icmp slt i32 %11, %12
  br i1 %13, label %14, label %23

14:                                               ; preds = %10
  %15 = call i32 (i8*, ...) @__isoc99_scanf(i8* getelementptr inbounds ([3 x i8], [3 x i8]* @.str.1, i64 0, i64 0), i32* %6)
  %16 = load i32, i32* %6, align 4
  %17 = load i32, i32* %4, align 4
  %18 = sext i32 %17 to i64
  %19 = getelementptr inbounds [100 x i32], [100 x i32]* %3, i64 0, i64 %18
  store i32 %16, i32* %19, align 4
  br label %20

20:                                               ; preds = %14
  %21 = load i32, i32* %4, align 4
  %22 = add nsw i32 %21, 1
  store i32 %22, i32* %4, align 4
  br label %10

23:                                               ; preds = %10
  %24 = load i32, i32* %2, align 4
  %25 = sdiv i32 %24, 2
  %26 = icmp eq i32 %25, 0
  br i1 %26, label %27, label %30

27:                                               ; preds = %23
  %28 = load i32, i32* %2, align 4
  %29 = sdiv i32 %28, 2
  store i32 %29, i32* %7, align 4
  br label %34

30:                                               ; preds = %23
  %31 = load i32, i32* %2, align 4
  %32 = add nsw i32 %31, 1
  %33 = sdiv i32 %32, 2
  store i32 %33, i32* %7, align 4
  br label %34

34:                                               ; preds = %30, %27
  store i32 0, i32* %5, align 4
  br label %35

35:                                               ; preds = %55, %34
  %36 = load i32, i32* %5, align 4
  %37 = load i32, i32* %7, align 4
  %38 = icmp slt i32 %36, %37
  br i1 %38, label %39, label %58

39:                                               ; preds = %35
  %40 = load i32, i32* %2, align 4
  %41 = sub nsw i32 %40, 1
  %42 = load i32, i32* %5, align 4
  %43 = sub nsw i32 %41, %42
  %44 = sext i32 %43 to i64
  %45 = getelementptr inbounds [100 x i32], [100 x i32]* %3, i64 0, i64 %44
  %46 = load i32, i32* %45, align 4
  %47 = load i32, i32* %5, align 4
  %48 = sext i32 %47 to i64
  %49 = getelementptr inbounds [100 x i32], [100 x i32]* %8, i64 0, i64 %48
  store i32 %46, i32* %49, align 4
  %50 = load i32, i32* %5, align 4
  %51 = sext i32 %50 to i64
  %52 = getelementptr inbounds [100 x i32], [100 x i32]* %8, i64 0, i64 %51
  %53 = load i32, i32* %52, align 4
  %54 = call i32 (i8*, ...) @printf(i8* getelementptr inbounds ([4 x i8], [4 x i8]* @.str.2, i64 0, i64 0), i32 %53)
  br label %55

55:                                               ; preds = %39
  %56 = load i32, i32* %5, align 4
  %57 = add nsw i32 %56, 1
  store i32 %57, i32* %5, align 4
  br label %35

58:                                               ; preds = %35
  %59 = load i32, i32* %7, align 4
  store i32 %59, i32* %5, align 4
  br label %60

60:                                               ; preds = %92, %58
  %61 = load i32, i32* %5, align 4
  %62 = load i32, i32* %2, align 4
  %63 = icmp slt i32 %61, %62
  br i1 %63, label %64, label %95

64:                                               ; preds = %60
  %65 = load i32, i32* %2, align 4
  %66 = sub nsw i32 %65, 1
  %67 = load i32, i32* %5, align 4
  %68 = sub nsw i32 %66, %67
  %69 = sext i32 %68 to i64
  %70 = getelementptr inbounds [100 x i32], [100 x i32]* %3, i64 0, i64 %69
  %71 = load i32, i32* %70, align 4
  %72 = load i32, i32* %5, align 4
  %73 = sext i32 %72 to i64
  %74 = getelementptr inbounds [100 x i32], [100 x i32]* %8, i64 0, i64 %73
  store i32 %71, i32* %74, align 4
  %75 = load i32, i32* %5, align 4
  %76 = load i32, i32* %2, align 4
  %77 = sub nsw i32 %76, 1
  %78 = icmp eq i32 %75, %77
  br i1 %78, label %79, label %85

79:                                               ; preds = %64
  %80 = load i32, i32* %5, align 4
  %81 = sext i32 %80 to i64
  %82 = getelementptr inbounds [100 x i32], [100 x i32]* %8, i64 0, i64 %81
  %83 = load i32, i32* %82, align 4
  %84 = call i32 (i8*, ...) @printf(i8* getelementptr inbounds ([3 x i8], [3 x i8]* @.str.1, i64 0, i64 0), i32 %83)
  br label %91

85:                                               ; preds = %64
  %86 = load i32, i32* %5, align 4
  %87 = sext i32 %86 to i64
  %88 = getelementptr inbounds [100 x i32], [100 x i32]* %8, i64 0, i64 %87
  %89 = load i32, i32* %88, align 4
  %90 = call i32 (i8*, ...) @printf(i8* getelementptr inbounds ([4 x i8], [4 x i8]* @.str.2, i64 0, i64 0), i32 %89)
  br label %91

91:                                               ; preds = %85, %79
  br label %92

92:                                               ; preds = %91
  %93 = load i32, i32* %5, align 4
  %94 = add nsw i32 %93, 1
  store i32 %94, i32* %5, align 4
  br label %60

95:                                               ; preds = %60
  ret i32 0
}

declare dso_local i32 @__isoc99_scanf(i8*, ...) #1

declare dso_local i32 @printf(i8*, ...) #1


!llvm.module.flags = !{!0}
!llvm.ident = !{!1}

!0 = !{i32 1, !"wchar_size", i32 4}
!1 = !{!"clang version 10.0.0-4ubuntu1 "}
