; ModuleID = 'source-C-CXX/46/5914.c'
source_filename = "source-C-CXX/46/5914.c"
target datalayout = "e-m:e-p270:32:32-p271:32:32-p272:64:64-i64:64-f80:128-n8:16:32:64-S128"
target triple = "x86_64-pc-linux-gnu"

@.str = private unnamed_addr constant [4 x i8] c"%d\0A\00", align 1
@.str.1 = private unnamed_addr constant [3 x i8] c"%d\00", align 1
@.str.2 = private unnamed_addr constant [4 x i8] c"%d \00", align 1

; Function Attrs: nofree nounwind sspstrong uwtable
define dso_local i32 @main() local_unnamed_addr #0 {
  %1 = alloca i32, align 4
  %2 = alloca [100 x i32], align 16
  %3 = alloca i32, align 4
  %4 = bitcast i32* %1 to i8*
  call void @llvm.lifetime.start.p0i8(i64 4, i8* nonnull %4) #3
  %5 = bitcast [100 x i32]* %2 to i8*
  call void @llvm.lifetime.start.p0i8(i64 400, i8* nonnull %5) #3
  %6 = bitcast i32* %3 to i8*
  call void @llvm.lifetime.start.p0i8(i64 4, i8* nonnull %6) #3
  %7 = call i32 (i8*, ...) @__isoc99_scanf(i8* getelementptr inbounds ([4 x i8], [4 x i8]* @.str, i64 0, i64 0), i32* nonnull %1)
  %8 = load i32, i32* %1, align 4, !tbaa !5
  %9 = icmp sgt i32 %8, 0
  br i1 %9, label %10, label %19

10:                                               ; preds = %0, %10
  %11 = phi i64 [ %15, %10 ], [ 0, %0 ]
  %12 = call i32 (i8*, ...) @__isoc99_scanf(i8* getelementptr inbounds ([3 x i8], [3 x i8]* @.str.1, i64 0, i64 0), i32* nonnull %3)
  %13 = load i32, i32* %3, align 4, !tbaa !5
  %14 = getelementptr inbounds [100 x i32], [100 x i32]* %2, i64 0, i64 %11
  store i32 %13, i32* %14, align 4, !tbaa !5
  %15 = add nuw nsw i64 %11, 1
  %16 = load i32, i32* %1, align 4, !tbaa !5
  %17 = sext i32 %16 to i64
  %18 = icmp slt i64 %15, %17
  br i1 %18, label %10, label %19, !llvm.loop !9

19:                                               ; preds = %10, %0
  %20 = phi i32 [ %8, %0 ], [ %16, %10 ]
  %21 = add i32 %20, 1
  %22 = icmp ult i32 %21, 3
  %23 = sdiv i32 %21, 2
  %24 = select i1 %22, i32 0, i32 %23
  %25 = icmp sgt i32 %24, 0
  br i1 %25, label %29, label %26

26:                                               ; preds = %29, %19
  %27 = phi i32 [ %20, %19 ], [ %40, %29 ]
  %28 = icmp slt i32 %24, %27
  br i1 %28, label %41, label %56

29:                                               ; preds = %19, %29
  %30 = phi i32 [ %40, %29 ], [ %20, %19 ]
  %31 = phi i32 [ %38, %29 ], [ 0, %19 ]
  %32 = xor i32 %31, -1
  %33 = add i32 %30, %32
  %34 = sext i32 %33 to i64
  %35 = getelementptr inbounds [100 x i32], [100 x i32]* %2, i64 0, i64 %34
  %36 = load i32, i32* %35, align 4, !tbaa !5
  %37 = call i32 (i8*, ...) @printf(i8* nonnull dereferenceable(1) getelementptr inbounds ([4 x i8], [4 x i8]* @.str.2, i64 0, i64 0), i32 %36)
  %38 = add nuw nsw i32 %31, 1
  %39 = icmp eq i32 %38, %24
  %40 = load i32, i32* %1, align 4, !tbaa !5
  br i1 %39, label %26, label %29, !llvm.loop !11

41:                                               ; preds = %26, %41
  %42 = phi i32 [ %54, %41 ], [ %27, %26 ]
  %43 = phi i32 [ %53, %41 ], [ %24, %26 ]
  %44 = xor i32 %43, -1
  %45 = add i32 %42, %44
  %46 = sext i32 %45 to i64
  %47 = getelementptr inbounds [100 x i32], [100 x i32]* %2, i64 0, i64 %46
  %48 = load i32, i32* %47, align 4, !tbaa !5
  %49 = add nsw i32 %42, -1
  %50 = icmp eq i32 %43, %49
  %51 = select i1 %50, i8* getelementptr inbounds ([3 x i8], [3 x i8]* @.str.1, i64 0, i64 0), i8* getelementptr inbounds ([4 x i8], [4 x i8]* @.str.2, i64 0, i64 0)
  %52 = call i32 (i8*, ...) @printf(i8* nonnull dereferenceable(1) %51, i32 %48)
  %53 = add nsw i32 %43, 1
  %54 = load i32, i32* %1, align 4, !tbaa !5
  %55 = icmp slt i32 %53, %54
  br i1 %55, label %41, label %56, !llvm.loop !12

56:                                               ; preds = %41, %26
  call void @llvm.lifetime.end.p0i8(i64 4, i8* nonnull %6) #3
  call void @llvm.lifetime.end.p0i8(i64 400, i8* nonnull %5) #3
  call void @llvm.lifetime.end.p0i8(i64 4, i8* nonnull %4) #3
  ret i32 0
}

; Function Attrs: argmemonly mustprogress nofree nosync nounwind willreturn
declare void @llvm.lifetime.start.p0i8(i64 immarg, i8* nocapture) #1

; Function Attrs: nofree nounwind
declare noundef i32 @__isoc99_scanf(i8* nocapture noundef readonly, ...) local_unnamed_addr #2

; Function Attrs: nofree nounwind
declare noundef i32 @printf(i8* nocapture noundef readonly, ...) local_unnamed_addr #2

; Function Attrs: argmemonly mustprogress nofree nosync nounwind willreturn
declare void @llvm.lifetime.end.p0i8(i64 immarg, i8* nocapture) #1


!llvm.module.flags = !{!0, !1, !2, !3}
!llvm.ident = !{!4}

!0 = !{i32 1, !"wchar_size", i32 4}
!1 = !{i32 7, !"PIC Level", i32 2}
!2 = !{i32 7, !"PIE Level", i32 2}
!3 = !{i32 7, !"uwtable", i32 1}
!4 = !{!"clang version 13.0.0"}
!5 = !{!6, !6, i64 0}
!6 = !{!"int", !7, i64 0}
!7 = !{!"omnipotent char", !8, i64 0}
!8 = !{!"Simple C/C++ TBAA"}
!9 = distinct !{!9, !10}
!10 = !{!"llvm.loop.mustprogress"}
!11 = distinct !{!11, !10}
!12 = distinct !{!12, !10}
